; ModuleID = 'source-C-CXX/59/1800.c'
source_filename = "source-C-CXX/59/1800.c"
target datalayout = "e-m:e-p270:32:32-p271:32:32-p272:64:64-i64:64-f80:128-n8:16:32:64-S128"
target triple = "x86_64-pc-linux-gnu"

@.str = private unnamed_addr constant [3 x i8] c"%d\00", align 1
@.str.1 = private unnamed_addr constant [7 x i8] c"%d %d\0A\00", align 1
@.str.2 = private unnamed_addr constant [6 x i8] c"empty\00", align 1

; Function Attrs: nofree nounwind sspstrong uwtable
define dso_local i32 @main() local_unnamed_addr #0 {
  %1 = alloca i32, align 4
  %2 = bitcast i32* %1 to i8*
  call void @llvm.lifetime.start.p0i8(i64 4, i8* nonnull %2) #3
  %3 = call i32 (i8*, ...) @__isoc99_scanf(i8* getelementptr inbounds ([3 x i8], [3 x i8]* @.str, i64 0, i64 0), i32* nonnull %1)
  %4 = load i32, i32* %1, align 4, !tbaa !5
  %5 = icmp slt i32 %4, 5
  br i1 %5, label %50, label %6

6:                                                ; preds = %0, %42
  %7 = phi i32 [ %44, %42 ], [ %4, %0 ]
  %8 = phi i32 [ %45, %42 ], [ 0, %0 ]
  %9 = phi i32 [ %43, %42 ], [ 3, %0 ]
  %10 = icmp ult i32 %9, 9
  br i1 %10, label %24, label %11

11:                                               ; preds = %6, %11
  %12 = phi i32 [ %16, %11 ], [ 1, %6 ]
  %13 = phi i32 [ %17, %11 ], [ 3, %6 ]
  %14 = urem i32 %9, %13
  %15 = icmp eq i32 %14, 0
  %16 = select i1 %15, i32 0, i32 %12
  %17 = add nuw nsw i32 %13, 1
  %18 = mul nsw i32 %17, %17
  %19 = icmp ugt i32 %18, %9
  br i1 %19, label %20, label %11, !llvm.loop !9

20:                                               ; preds = %11
  %21 = icmp eq i32 %16, 0
  br i1 %21, label %22, label %24

22:                                               ; preds = %20
  %23 = add nuw nsw i32 %9, 2
  br label %42

24:                                               ; preds = %6, %20
  %25 = add nuw nsw i32 %9, 2
  %26 = icmp ult i32 %9, 7
  br i1 %26, label %38, label %27

27:                                               ; preds = %24, %27
  %28 = phi i32 [ %32, %27 ], [ 1, %24 ]
  %29 = phi i32 [ %33, %27 ], [ 3, %24 ]
  %30 = urem i32 %25, %29
  %31 = icmp eq i32 %30, 0
  %32 = select i1 %31, i32 0, i32 %28
  %33 = add nuw nsw i32 %29, 1
  %34 = mul nsw i32 %33, %33
  %35 = icmp ugt i32 %34, %25
  br i1 %35, label %36, label %27, !llvm.loop !11

36:                                               ; preds = %27
  %37 = icmp eq i32 %32, 0
  br i1 %37, label %42, label %38

38:                                               ; preds = %24, %36
  %39 = call i32 (i8*, ...) @printf(i8* nonnull dereferenceable(1) getelementptr inbounds ([7 x i8], [7 x i8]* @.str.1, i64 0, i64 0), i32 %9, i32 %25)
  %40 = add nsw i32 %8, 1
  %41 = load i32, i32* %1, align 4, !tbaa !5
  br label %42

42:                                               ; preds = %22, %36, %38
  %43 = phi i32 [ %23, %22 ], [ %25, %36 ], [ %25, %38 ]
  %44 = phi i32 [ %7, %22 ], [ %7, %36 ], [ %41, %38 ]
  %45 = phi i32 [ %8, %22 ], [ %8, %36 ], [ %40, %38 ]
  %46 = add nsw i32 %44, -2
  %47 = icmp sgt i32 %43, %46
  br i1 %47, label %48, label %6, !llvm.loop !12

48:                                               ; preds = %42
  %49 = icmp eq i32 %45, 0
  br i1 %49, label %50, label %52

50:                                               ; preds = %0, %48
  %51 = call i32 (i8*, ...) @printf(i8* nonnull dereferenceable(1) getelementptr inbounds ([6 x i8], [6 x i8]* @.str.2, i64 0, i64 0))
  br label %52

52:                                               ; preds = %50, %48
  call void @llvm.lifetime.end.p0i8(i64 4, i8* nonnull %2) #3
  ret i32 0
}

; Function Attrs: argmemonly mustprogress nofree nosync nounwind willreturn
declare void @llvm.lifetime.start.p0i8(i64 immarg, i8* nocapture) #1

; Function Attrs: nofree nounwind
declare noundef i32 @__isoc99_scanf(i8* nocapture noundef readonly, ...) local_unnamed_addr #2

; Function Attrs: nofree nounwind
declare noundef i32 @printf(i8* nocapture noundef readonly, ...) local_unnamed_addr #2

; Function Attrs: argmemonly mustprogress nofree nosync nounwind willreturn
declare void @llvm.lifetime.end.p0i8(i64 immarg, i8* nocapture) #1


!llvm.module.flags = !{!0, !1, !2, !3}
!llvm.ident = !{!4}

!0 = !{i32 1, !"wchar_size", i32 4}
!1 = !{i32 7, !"PIC Level", i32 2}
!2 = !{i32 7, !"PIE Level", i32 2}
!3 = !{i32 7, !"uwtable", i32 1}
!4 = !{!"clang version 13.0.0"}
!5 = !{!6, !6, i64 0}
!6 = !{!"int", !7, i64 0}
!7 = !{!"omnipotent char", !8, i64 0}
!8 = !{!"Simple C/C++ TBAA"}
!9 = distinct !{!9, !10}
!10 = !{!"llvm.loop.mustprogress"}
!11 = distinct !{!11, !10}
!12 = distinct !{!12, !10}
